; Function Attrs: nounwind uwtable
define void @NCONF_free_data(ptr noundef %0) local_unnamed_addr #0 {
  %2 = icmp eq ptr %0, null
  br i1 %2, label %8, label %3

3:                                                ; preds = %1
  %4 = load ptr, ptr %0, align 8, !tbaa !16
  %5 = getelementptr inbounds nuw i8, ptr %4, i64 32
  %6 = load ptr, ptr %5, align 8, !tbaa !25
  %7 = tail call i32 %6(ptr noundef nonnull %0) #15
  br label %8

8:                                                ; preds = %1, %3
  ret void
}